; Function Attrs: nounwind uwtable
define void @Cba_End(ptr noundef readonly captures(none) %0) local_unnamed_addr #0 {
  %2 = getelementptr i8, ptr %0, i64 536
  %.val = load ptr, ptr %2, align 8, !tbaa !63
  %.not.i = icmp eq ptr %.val, null
  br i1 %.not.i, label %Cba_AbcFreeMan.exit, label %3

3:                                                ; preds = %1
  tail call fastcc void @Cba_ManFree(ptr noundef nonnull %.val)
  br label %Cba_AbcFreeMan.exit

Cba_AbcFreeMan.exit:                              ; preds = %1, %3
  ret void
}